; Function Attrs: nounwind uwtable
define internal noundef i32 @aria_192_cfb1_cipher(ptr noundef %0, ptr noundef %1, ptr noundef %2, i64 noundef %3) #1 {
  %5 = alloca i32, align 4
  %.not35 = icmp eq i64 %3, 0
  br i1 %.not35, label %._crit_edge, label %.lr.ph

.lr.ph:                                           ; preds = %4
  %spec.select = tail call i64 @llvm.umin.i64(i64 %3, i64 134217728)
  %6 = getelementptr inbounds nuw i8, ptr %0, i64 40
  br label %7

7:                                                ; preds = %.lr.ph, %7
  %.134 = phi i64 [ %spec.select, %.lr.ph ], [ %spec.select30, %7 ]
  %.02533 = phi i64 [ %3, %.lr.ph ], [ %16, %7 ]
  %.02632 = phi ptr [ %2, %.lr.ph ], [ %17, %7 ]
  %.02731 = phi ptr [ %1, %.lr.ph ], [ %18, %7 ]
  call void @llvm.lifetime.start.p0(i64 4, ptr nonnull %5) #6
  %8 = call i32 @EVP_CIPHER_CTX_get_num(ptr noundef %0) #6
  store i32 %8, ptr %5, align 4, !tbaa !5
  %9 = call i32 @EVP_CIPHER_CTX_test_flags(ptr noundef %0, i32 noundef 8192) #6
  %.not = icmp eq i32 %9, 0
  %10 = shl nuw nsw i64 %.134, 3
  %11 = select i1 %.not, i64 %10, i64 %.134
  %12 = call ptr @EVP_CIPHER_CTX_get_cipher_data(ptr noundef %0) #6
  %13 = call i32 @EVP_CIPHER_CTX_is_encrypting(ptr noundef %0) #6
  call void @CRYPTO_cfb128_1_encrypt(ptr noundef %.02632, ptr noundef %.02731, i64 noundef range(i64 0, 1073741825) %11, ptr noundef %12, ptr noundef nonnull %6, ptr noundef nonnull %5, i32 noundef %13, ptr noundef nonnull @ossl_aria_encrypt) #6
  %14 = load i32, ptr %5, align 4, !tbaa !5
  %15 = call i32 @EVP_CIPHER_CTX_set_num(ptr noundef %0, i32 noundef %14) #6
  %16 = sub nuw i64 %.02533, %.134
  %17 = getelementptr inbounds nuw i8, ptr %.02632, i64 %.134
  %18 = getelementptr inbounds nuw i8, ptr %.02731, i64 %.134
  %spec.select30 = call i64 @llvm.umin.i64(i64 %16, i64 %.134)
  call void @llvm.lifetime.end.p0(i64 4, ptr nonnull %5) #6
  %.not36 = icmp eq i64 %16, 0
  br i1 %.not36, label %._crit_edge, label %7, !llvm.loop !28

._crit_edge:                                      ; preds = %7, %4
  ret i32 1
}